target datalayout = "e-m:e-p270:32:32-p271:32:32-p272:64:64-i64:64-i128:128-f80:128-n8:16:32:64-S128"
target triple = "x86_64-pc-linux-gnu"

%struct.Gia_Man_t_ = type { ptr, ptr, i32, i32, i32, i32, ptr, ptr, i32, i32, i32, ptr, ptr, %struct.Vec_Int_t_, %struct.Vec_Int_t_, i32, i32, i32, %struct.Vec_Int_t_, ptr, ptr, ptr, i32, i32, i32, i32, ptr, ptr, ptr, ptr, ptr, i32, i32, ptr, i32, ptr, ptr, ptr, ptr, ptr, ptr, ptr, ptr, ptr, ptr, ptr, ptr, ptr, ptr, ptr, ptr, ptr, ptr, %struct.Vec_Int_t_, %struct.Vec_Int_t_, ptr, ptr, ptr, ptr, ptr, ptr, ptr, ptr, ptr, ptr, ptr, ptr, ptr, ptr, ptr, ptr, ptr, ptr, ptr, ptr, ptr, i32, float, float, ptr, ptr, i32, ptr, ptr, ptr, ptr, ptr, ptr, ptr, ptr, ptr, ptr, ptr, ptr, ptr, ptr, ptr, i64, i64, ptr, ptr, i32, i32, i32, i32, i32, i32, i32, i32, i32, i32, i32, i32, ptr, ptr, ptr, ptr, ptr, ptr, ptr, ptr, i32, i32, i32, ptr, i32, i32, ptr, ptr, ptr, ptr, ptr, ptr, i32, i32, ptr, %struct.Vec_Int_t_, %struct.Vec_Int_t_, %struct.Vec_Int_t_, ptr, ptr, ptr, i32, i32, i32, i32, ptr, ptr, ptr, ptr, ptr }
%struct.Vec_Int_t_ = type { i32, i32, ptr }
%struct.Gia_Obj_t_ = type <{ i64, i32 }>
%struct.Gia_Rpr_t_ = type { i32 }

; Function Attrs: inlinehint nounwind uwtable
define internal i32 @Gia_ObjFaninC1(ptr noundef %0) #1 {
  %2 = alloca ptr, align 8
  store ptr %0, ptr %2, align 8, !tbaa !38
  %3 = load ptr, ptr %2, align 8, !tbaa !38
  %4 = load i64, ptr %3, align 4
  %5 = lshr i64 %4, 61
  %6 = and i64 %5, 1
  %7 = trunc i64 %6 to i32
  ret i32 %7
}

; Function Attrs: inlinehint nounwind uwtable
define internal i32 @Gia_ObjFaninC0(ptr noundef %0) #1 {
  %2 = alloca ptr, align 8
  store ptr %0, ptr %2, align 8, !tbaa !38
  %3 = load ptr, ptr %2, align 8, !tbaa !38
  %4 = load i64, ptr %3, align 4
  %5 = lshr i64 %4, 29
  %6 = and i64 %5, 1
  %7 = trunc i64 %6 to i32
  ret i32 %7
}

; Function Attrs: inlinehint nounwind uwtable
define internal i32 @Gia_IsComplement(ptr noundef %0) #1 {
  %2 = alloca ptr, align 8
  store ptr %0, ptr %2, align 8, !tbaa !38
  %3 = load ptr, ptr %2, align 8, !tbaa !38
  %4 = ptrtoint ptr %3 to i64
  %5 = and i64 %4, 1
  %6 = trunc i64 %5 to i32
  ret i32 %6
}

; Function Attrs: inlinehint nounwind uwtable
define internal ptr @Gia_Regular(ptr noundef %0) #1 {
  %2 = alloca ptr, align 8
  store ptr %0, ptr %2, align 8, !tbaa !38
  %3 = load ptr, ptr %2, align 8, !tbaa !38
  %4 = ptrtoint ptr %3 to i64
  %5 = and i64 %4, -2
  %6 = inttoptr i64 %5 to ptr
  ret ptr %6
}

; Function Attrs: inlinehint nounwind uwtable
define internal ptr @Gia_ManObj(ptr noundef %0, i32 noundef %1) #1 {
  %3 = alloca ptr, align 8
  %4 = alloca i32, align 4
  store ptr %0, ptr %3, align 8, !tbaa !3
  store i32 %1, ptr %4, align 4, !tbaa !33
  %5 = load ptr, ptr %3, align 8, !tbaa !3
  %6 = getelementptr inbounds nuw %struct.Gia_Man_t_, ptr %5, i32 0, i32 6
  %7 = load ptr, ptr %6, align 8, !tbaa !43
  %8 = load i32, ptr %4, align 4, !tbaa !33
  %9 = sext i32 %8 to i64
  %10 = getelementptr inbounds %struct.Gia_Obj_t_, ptr %7, i64 %9
  ret ptr %10
}

; Function Attrs: inlinehint nounwind uwtable
define internal i32 @Gia_ObjDiffColors2(ptr noundef %0, i32 noundef %1, i32 noundef %2) #1 {
  %4 = alloca ptr, align 8
  %5 = alloca i32, align 4
  %6 = alloca i32, align 4
  store ptr %0, ptr %4, align 8, !tbaa !3
  store i32 %1, ptr %5, align 4, !tbaa !33
  store i32 %2, ptr %6, align 4, !tbaa !33
  %7 = load ptr, ptr %4, align 8, !tbaa !3
  %8 = getelementptr inbounds nuw %struct.Gia_Man_t_, ptr %7, i32 0, i32 27
  %9 = load ptr, ptr %8, align 8, !tbaa !53
  %10 = load i32, ptr %5, align 4, !tbaa !33
  %11 = sext i32 %10 to i64
  %12 = getelementptr inbounds %struct.Gia_Rpr_t_, ptr %9, i64 %11
  %13 = load i32, ptr %12, align 4
  %14 = lshr i32 %13, 30
  %15 = and i32 %14, 1
  %16 = load ptr, ptr %4, align 8, !tbaa !3
  %17 = getelementptr inbounds nuw %struct.Gia_Man_t_, ptr %16, i32 0, i32 27
  %18 = load ptr, ptr %17, align 8, !tbaa !53
  %19 = load i32, ptr %6, align 4, !tbaa !33
  %20 = sext i32 %19 to i64
  %21 = getelementptr inbounds %struct.Gia_Rpr_t_, ptr %18, i64 %20
  %22 = load i32, ptr %21, align 4
  %23 = lshr i32 %22, 30
  %24 = and i32 %23, 1
  %25 = xor i32 %15, %24
  %26 = icmp ne i32 %25, 0
  br i1 %26, label %46, label %27

27:                                               ; preds = %3
  %28 = load ptr, ptr %4, align 8, !tbaa !3
  %29 = getelementptr inbounds nuw %struct.Gia_Man_t_, ptr %28, i32 0, i32 27
  %30 = load ptr, ptr %29, align 8, !tbaa !53
  %31 = load i32, ptr %5, align 4, !tbaa !33
  %32 = sext i32 %31 to i64
  %33 = getelementptr inbounds %struct.Gia_Rpr_t_, ptr %30, i64 %32
  %34 = load i32, ptr %33, align 4
  %35 = lshr i32 %34, 31
  %36 = load ptr, ptr %4, align 8, !tbaa !3
  %37 = getelementptr inbounds nuw %struct.Gia_Man_t_, ptr %36, i32 0, i32 27
  %38 = load ptr, ptr %37, align 8, !tbaa !53
  %39 = load i32, ptr %6, align 4, !tbaa !33
  %40 = sext i32 %39 to i64
  %41 = getelementptr inbounds %struct.Gia_Rpr_t_, ptr %38, i64 %40
  %42 = load i32, ptr %41, align 4
  %43 = lshr i32 %42, 31
  %44 = xor i32 %35, %43
  %45 = icmp ne i32 %44, 0
  br label %46

46:                                               ; preds = %27, %3
  %47 = phi i1 [ true, %3 ], [ %45, %27 ]
  %48 = zext i1 %47 to i32
  ret i32 %48
}

; Function Attrs: inlinehint nounwind uwtable
define internal i32 @Gia_ObjProved(ptr noundef %0, i32 noundef %1) #1 {
  %3 = alloca ptr, align 8
  %4 = alloca i32, align 4
  store ptr %0, ptr %3, align 8, !tbaa !3
  store i32 %1, ptr %4, align 4, !tbaa !33
  %5 = load ptr, ptr %3, align 8, !tbaa !3
  %6 = getelementptr inbounds nuw %struct.Gia_Man_t_, ptr %5, i32 0, i32 27
  %7 = load ptr, ptr %6, align 8, !tbaa !53
  %8 = load i32, ptr %4, align 4, !tbaa !33
  %9 = sext i32 %8 to i64
  %10 = getelementptr inbounds %struct.Gia_Rpr_t_, ptr %7, i64 %9
  %11 = load i32, ptr %10, align 4
  %12 = lshr i32 %11, 28
  %13 = and i32 %12, 1
  ret i32 %13
}

; Function Attrs: inlinehint nounwind uwtable
define internal i32 @Gia_ObjRepr(ptr noundef %0, i32 noundef %1) #1 {
  %3 = alloca ptr, align 8
  %4 = alloca i32, align 4
  store ptr %0, ptr %3, align 8, !tbaa !3
  store i32 %1, ptr %4, align 4, !tbaa !33
  %5 = load ptr, ptr %3, align 8, !tbaa !3
  %6 = getelementptr inbounds nuw %struct.Gia_Man_t_, ptr %5, i32 0, i32 27
  %7 = load ptr, ptr %6, align 8, !tbaa !53
  %8 = load i32, ptr %4, align 4, !tbaa !33
  %9 = sext i32 %8 to i64
  %10 = getelementptr inbounds %struct.Gia_Rpr_t_, ptr %7, i64 %9
  %11 = load i32, ptr %10, align 4
  %12 = and i32 %11, 268435455
  ret i32 %12
}

; Function Attrs: inlinehint nounwind uwtable
define internal i32 @Gia_ObjId(ptr noundef %0, ptr noundef %1) #1 {
  %3 = alloca ptr, align 8
  %4 = alloca ptr, align 8
  store ptr %0, ptr %3, align 8, !tbaa !3
  store ptr %1, ptr %4, align 8, !tbaa !38
  %5 = load ptr, ptr %4, align 8, !tbaa !38
  %6 = load ptr, ptr %3, align 8, !tbaa !3
  %7 = getelementptr inbounds nuw %struct.Gia_Man_t_, ptr %6, i32 0, i32 6
  %8 = load ptr, ptr %7, align 8, !tbaa !43
  %9 = ptrtoint ptr %5 to i64
  %10 = ptrtoint ptr %8 to i64
  %11 = sub i64 %9, %10
  %12 = sdiv exact i64 %11, 12
  %13 = trunc i64 %12 to i32
  ret i32 %13
}

; Function Attrs: inlinehint nounwind uwtable
define internal i32 @Gia_ObjFanin1Copy(ptr noundef %0) #1 {
  %2 = alloca ptr, align 8
  store ptr %0, ptr %2, align 8, !tbaa !38
  %3 = load ptr, ptr %2, align 8, !tbaa !38
  %4 = call ptr @Gia_ObjFanin1(ptr noundef %3)
  %5 = getelementptr inbounds nuw %struct.Gia_Obj_t_, ptr %4, i32 0, i32 1
  %6 = load i32, ptr %5, align 4, !tbaa !39
  %7 = load ptr, ptr %2, align 8, !tbaa !38
  %8 = call i32 @Gia_ObjFaninC1(ptr noundef %7)
  %9 = call i32 @Abc_LitNotCond(i32 noundef %6, i32 noundef %8)
  ret i32 %9
}

; Function Attrs: inlinehint nounwind uwtable
define internal i32 @Gia_ObjFanin0Copy(ptr noundef %0) #1 {
  %2 = alloca ptr, align 8
  store ptr %0, ptr %2, align 8, !tbaa !38
  %3 = load ptr, ptr %2, align 8, !tbaa !38
  %4 = call ptr @Gia_ObjFanin0(ptr noundef %3)
  %5 = getelementptr inbounds nuw %struct.Gia_Obj_t_, ptr %4, i32 0, i32 1
  %6 = load i32, ptr %5, align 4, !tbaa !39
  %7 = load ptr, ptr %2, align 8, !tbaa !38
  %8 = call i32 @Gia_ObjFaninC0(ptr noundef %7)
  %9 = call i32 @Abc_LitNotCond(i32 noundef %6, i32 noundef %8)
  ret i32 %9
}

; Function Attrs: inlinehint nounwind uwtable
define internal ptr @Gia_ObjFanin1(ptr noundef %0) #1 {
  %2 = alloca ptr, align 8
  store ptr %0, ptr %2, align 8, !tbaa !38
  %3 = load ptr, ptr %2, align 8, !tbaa !38
  %4 = load ptr, ptr %2, align 8, !tbaa !38
  %5 = load i64, ptr %4, align 4
  %6 = lshr i64 %5, 32
  %7 = and i64 %6, 536870911
  %8 = trunc i64 %7 to i32
  %9 = sext i32 %8 to i64
  %10 = sub i64 0, %9
  %11 = getelementptr inbounds %struct.Gia_Obj_t_, ptr %3, i64 %10
  ret ptr %11
}

; Function Attrs: inlinehint nounwind uwtable
define internal ptr @Gia_ObjFanin0(ptr noundef %0) #1 {
  %2 = alloca ptr, align 8
  store ptr %0, ptr %2, align 8, !tbaa !38
  %3 = load ptr, ptr %2, align 8, !tbaa !38
  %4 = load ptr, ptr %2, align 8, !tbaa !38
  %5 = load i64, ptr %4, align 4
  %6 = and i64 %5, 536870911
  %7 = trunc i64 %6 to i32
  %8 = sext i32 %7 to i64
  %9 = sub i64 0, %8
  %10 = getelementptr inbounds %struct.Gia_Obj_t_, ptr %3, i64 %9
  ret ptr %10
}

; Function Attrs: inlinehint nounwind uwtable
define internal i32 @Abc_LitNotCond(i32 noundef %0, i32 noundef %1) #1 {
  %3 = alloca i32, align 4
  %4 = alloca i32, align 4
  store i32 %0, ptr %3, align 4, !tbaa !33
  store i32 %1, ptr %4, align 4, !tbaa !33
  %5 = load i32, ptr %3, align 4, !tbaa !33
  %6 = load i32, ptr %4, align 4, !tbaa !33
  %7 = icmp sgt i32 %6, 0
  %8 = zext i1 %7 to i32
  %9 = xor i32 %5, %8
  ret i32 %9
}

; Function Attrs: inlinehint nounwind uwtable
define internal i32 @Gia_ObjPhaseReal(ptr noundef %0) #1 {
  %2 = alloca ptr, align 8
  store ptr %0, ptr %2, align 8, !tbaa !38
  %3 = load ptr, ptr %2, align 8, !tbaa !38
  %4 = call ptr @Gia_Regular(ptr noundef %3)
  %5 = load i64, ptr %4, align 4
  %6 = lshr i64 %5, 63
  %7 = trunc i64 %6 to i32
  %8 = load ptr, ptr %2, align 8, !tbaa !38
  %9 = call i32 @Gia_IsComplement(ptr noundef %8)
  %10 = xor i32 %7, %9
  ret i32 %10
}

; Function Attrs: inlinehint nounwind uwtable
define internal ptr @Gia_ManEquivRepr(ptr noundef %0, ptr noundef %1, i32 noundef %2, i32 noundef %3) #1 {
  %5 = alloca ptr, align 8
  %6 = alloca ptr, align 8
  %7 = alloca ptr, align 8
  %8 = alloca i32, align 4
  %9 = alloca i32, align 4
  store ptr %0, ptr %6, align 8, !tbaa !3
  store ptr %1, ptr %7, align 8, !tbaa !38
  store i32 %2, ptr %8, align 4, !tbaa !33
  store i32 %3, ptr %9, align 4, !tbaa !33
  %10 = load i32, ptr %8, align 4, !tbaa !33
  %11 = icmp ne i32 %10, 0
  br i1 %11, label %12, label %21

12:                                               ; preds = %4
  %13 = load ptr, ptr %6, align 8, !tbaa !3
  %14 = load ptr, ptr %6, align 8, !tbaa !3
  %15 = load ptr, ptr %7, align 8, !tbaa !38
  %16 = call i32 @Gia_ObjId(ptr noundef %14, ptr noundef %15)
  %17 = call i32 @Gia_ObjRepr(ptr noundef %13, i32 noundef %16)
  %18 = icmp eq i32 %17, 268435455
  br i1 %18, label %19, label %20

19:                                               ; preds = %12
  store ptr null, ptr %5, align 8
  br label %54

20:                                               ; preds = %12
  br label %30

21:                                               ; preds = %4
  %22 = load ptr, ptr %6, align 8, !tbaa !3
  %23 = load ptr, ptr %6, align 8, !tbaa !3
  %24 = load ptr, ptr %7, align 8, !tbaa !38
  %25 = call i32 @Gia_ObjId(ptr noundef %23, ptr noundef %24)
  %26 = call i32 @Gia_ObjProved(ptr noundef %22, i32 noundef %25)
  %27 = icmp ne i32 %26, 0
  br i1 %27, label %29, label %28

28:                                               ; preds = %21
  store ptr null, ptr %5, align 8
  br label %54

29:                                               ; preds = %21
  br label %30

30:                                               ; preds = %29, %20
  %31 = load i32, ptr %9, align 4, !tbaa !33
  %32 = icmp ne i32 %31, 0
  br i1 %32, label %33, label %46

33:                                               ; preds = %30
  %34 = load ptr, ptr %6, align 8, !tbaa !3
  %35 = load ptr, ptr %6, align 8, !tbaa !3
  %36 = load ptr, ptr %7, align 8, !tbaa !38
  %37 = call i32 @Gia_ObjId(ptr noundef %35, ptr noundef %36)
  %38 = load ptr, ptr %6, align 8, !tbaa !3
  %39 = load ptr, ptr %6, align 8, !tbaa !3
  %40 = load ptr, ptr %7, align 8, !tbaa !38
  %41 = call i32 @Gia_ObjId(ptr noundef %39, ptr noundef %40)
  %42 = call i32 @Gia_ObjRepr(ptr noundef %38, i32 noundef %41)
  %43 = call i32 @Gia_ObjDiffColors2(ptr noundef %34, i32 noundef %37, i32 noundef %42)
  %44 = icmp ne i32 %43, 0
  br i1 %44, label %46, label %45

45:                                               ; preds = %33
  store ptr null, ptr %5, align 8
  br label %54

46:                                               ; preds = %33, %30
  %47 = load ptr, ptr %6, align 8, !tbaa !3
  %48 = load ptr, ptr %6, align 8, !tbaa !3
  %49 = load ptr, ptr %6, align 8, !tbaa !3
  %50 = load ptr, ptr %7, align 8, !tbaa !38
  %51 = call i32 @Gia_ObjId(ptr noundef %49, ptr noundef %50)
  %52 = call i32 @Gia_ObjRepr(ptr noundef %48, i32 noundef %51)
  %53 = call ptr @Gia_ManObj(ptr noundef %47, i32 noundef %52)
  store ptr %53, ptr %5, align 8
  br label %54

54:                                               ; preds = %46, %45, %28, %19
  %55 = load ptr, ptr %5, align 8
  ret ptr %55
}

; Function Attrs: nounwind uwtable
define void @Gia_ManEquivReduce_rec(ptr noundef %0, ptr noundef %1, ptr noundef %2, i32 noundef %3, i32 noundef %4) #0 {
  %6 = alloca ptr, align 8
  %7 = alloca ptr, align 8
  %8 = alloca ptr, align 8
  %9 = alloca i32, align 4
  %10 = alloca i32, align 4
  %11 = alloca ptr, align 8
  %12 = alloca i32, align 4
  store ptr %0, ptr %6, align 8, !tbaa !3
  store ptr %1, ptr %7, align 8, !tbaa !3
  store ptr %2, ptr %8, align 8, !tbaa !38
  store i32 %3, ptr %9, align 4, !tbaa !33
  store i32 %4, ptr %10, align 4, !tbaa !33
  call void @llvm.lifetime.start.p0(i64 8, ptr %11) #12
  %13 = load ptr, ptr %7, align 8, !tbaa !3
  %14 = load ptr, ptr %8, align 8, !tbaa !38
  %15 = load i32, ptr %9, align 4, !tbaa !33
  %16 = load i32, ptr %10, align 4, !tbaa !33
  %17 = call ptr @Gia_ManEquivRepr(ptr noundef %13, ptr noundef %14, i32 noundef %15, i32 noundef %16)
  store ptr %17, ptr %11, align 8, !tbaa !38
  %18 = icmp ne ptr %17, null
  br i1 %18, label %19, label %36

19:                                               ; preds = %5
  %20 = load ptr, ptr %6, align 8, !tbaa !3
  %21 = load ptr, ptr %7, align 8, !tbaa !3
  %22 = load ptr, ptr %11, align 8, !tbaa !38
  %23 = load i32, ptr %9, align 4, !tbaa !33
  %24 = load i32, ptr %10, align 4, !tbaa !33
  call void @Gia_ManEquivReduce_rec(ptr noundef %20, ptr noundef %21, ptr noundef %22, i32 noundef %23, i32 noundef %24)
  %25 = load ptr, ptr %11, align 8, !tbaa !38
  %26 = getelementptr inbounds nuw %struct.Gia_Obj_t_, ptr %25, i32 0, i32 1
  %27 = load i32, ptr %26, align 4, !tbaa !39
  %28 = load ptr, ptr %11, align 8, !tbaa !38
  %29 = call i32 @Gia_ObjPhaseReal(ptr noundef %28)
  %30 = load ptr, ptr %8, align 8, !tbaa !38
  %31 = call i32 @Gia_ObjPhaseReal(ptr noundef %30)
  %32 = xor i32 %29, %31
  %33 = call i32 @Abc_LitNotCond(i32 noundef %27, i32 noundef %32)
  %34 = load ptr, ptr %8, align 8, !tbaa !38
  %35 = getelementptr inbounds nuw %struct.Gia_Obj_t_, ptr %34, i32 0, i32 1
  store i32 %33, ptr %35, align 4, !tbaa !39
  store i32 1, ptr %12, align 4
  br label %64

36:                                               ; preds = %5
  %37 = load ptr, ptr %8, align 8, !tbaa !38
  %38 = getelementptr inbounds nuw %struct.Gia_Obj_t_, ptr %37, i32 0, i32 1
  %39 = load i32, ptr %38, align 4, !tbaa !39
  %40 = xor i32 %39, -1
  %41 = icmp ne i32 %40, 0
  br i1 %41, label %42, label %43

42:                                               ; preds = %36
  store i32 1, ptr %12, align 4
  br label %64

43:                                               ; preds = %36
  %44 = load ptr, ptr %6, align 8, !tbaa !3
  %45 = load ptr, ptr %7, align 8, !tbaa !3
  %46 = load ptr, ptr %8, align 8, !tbaa !38
  %47 = call ptr @Gia_ObjFanin0(ptr noundef %46)
  %48 = load i32, ptr %9, align 4, !tbaa !33
  %49 = load i32, ptr %10, align 4, !tbaa !33
  call void @Gia_ManEquivReduce_rec(ptr noundef %44, ptr noundef %45, ptr noundef %47, i32 noundef %48, i32 noundef %49)
  %50 = load ptr, ptr %6, align 8, !tbaa !3
  %51 = load ptr, ptr %7, align 8, !tbaa !3
  %52 = load ptr, ptr %8, align 8, !tbaa !38
  %53 = call ptr @Gia_ObjFanin1(ptr noundef %52)
  %54 = load i32, ptr %9, align 4, !tbaa !33
  %55 = load i32, ptr %10, align 4, !tbaa !33
  call void @Gia_ManEquivReduce_rec(ptr noundef %50, ptr noundef %51, ptr noundef %53, i32 noundef %54, i32 noundef %55)
  %56 = load ptr, ptr %6, align 8, !tbaa !3
  %57 = load ptr, ptr %8, align 8, !tbaa !38
  %58 = call i32 @Gia_ObjFanin0Copy(ptr noundef %57)
  %59 = load ptr, ptr %8, align 8, !tbaa !38
  %60 = call i32 @Gia_ObjFanin1Copy(ptr noundef %59)
  %61 = call i32 @Gia_ManHashAnd(ptr noundef %56, i32 noundef %58, i32 noundef %60)
  %62 = load ptr, ptr %8, align 8, !tbaa !38
  %63 = getelementptr inbounds nuw %struct.Gia_Obj_t_, ptr %62, i32 0, i32 1
  store i32 %61, ptr %63, align 4, !tbaa !39
  store i32 0, ptr %12, align 4
  br label %64

64:                                               ; preds = %43, %42, %19
  call void @llvm.lifetime.end.p0(i64 8, ptr %11) #12
  %65 = load i32, ptr %12, align 4
  switch i32 %65, label %67 [
    i32 0, label %66
    i32 1, label %66
  ]

66:                                               ; preds = %64, %64
  ret void

67:                                               ; preds = %64
  unreachable
}