; Function Attrs: nounwind uwtable
define void @Gia_ManEquivReduce_rec(ptr noundef %0, ptr noundef %1, ptr noundef %2, i32 noundef %3, i32 noundef %4) local_unnamed_addr #0 {
  %.not.i = icmp eq i32 %3, 0
  %6 = getelementptr i8, ptr %1, i64 32
  %.val24.i = load ptr, ptr %6, align 8, !tbaa !36
  %7 = ptrtoint ptr %2 to i64
  %8 = ptrtoint ptr %.val24.i to i64
  %9 = sub i64 %7, %8
  %10 = sdiv exact i64 %9, 12
  %11 = getelementptr i8, ptr %1, i64 192
  %.val29.i = load ptr, ptr %11, align 8, !tbaa !49
  %sext31.i = shl i64 %10, 32
  %12 = ashr exact i64 %sext31.i, 30
  %13 = getelementptr inbounds i8, ptr %.val29.i, i64 %12
  %14 = load i32, ptr %13, align 4
  br i1 %.not.i, label %18, label %15

15:                                               ; preds = %5
  %16 = and i32 %14, 268435455
  %17 = icmp eq i32 %16, 268435455
  br i1 %17, label %Gia_ManEquivRepr.exit.thread, label %20

18:                                               ; preds = %5
  %19 = and i32 %14, 268435456
  %.not18.i = icmp eq i32 %19, 0
  br i1 %.not18.i, label %Gia_ManEquivRepr.exit.thread, label %20

20:                                               ; preds = %18, %15
  %.not19.i = icmp eq i32 %4, 0
  br i1 %.not19.i, label %Gia_ManEquivRepr.exit, label %21

21:                                               ; preds = %20
  %22 = and i32 %14, 268435455
  %23 = zext nneg i32 %22 to i64
  %24 = getelementptr inbounds nuw %struct.Gia_Rpr_t_, ptr %.val29.i, i64 %23
  %25 = load i32, ptr %24, align 4
  %26 = xor i32 %25, %14
  %.not20.i = icmp ult i32 %26, 1073741824
  %.not = icmp eq ptr %.val24.i, null
  %or.cond = or i1 %.not, %.not20.i
  br i1 %or.cond, label %Gia_ManEquivRepr.exit.thread, label %27

Gia_ManEquivRepr.exit:                            ; preds = %20
  %.not.old = icmp eq ptr %.val24.i, null
  br i1 %.not.old, label %Gia_ManEquivRepr.exit.thread, label %Gia_ManEquivRepr.exit._crit_edge

Gia_ManEquivRepr.exit._crit_edge:                 ; preds = %Gia_ManEquivRepr.exit
  %.pre = and i32 %14, 268435455
  %.pre30 = zext nneg i32 %.pre to i64
  br label %27

common.ret32:                                     ; preds = %Gia_ManEquivRepr.exit.thread, %51, %27
  ret void

27:                                               ; preds = %Gia_ManEquivRepr.exit._crit_edge, %21
  %.pre-phi31 = phi i64 [ %.pre30, %Gia_ManEquivRepr.exit._crit_edge ], [ %23, %21 ]
  %28 = getelementptr inbounds nuw %struct.Gia_Obj_t_, ptr %.val24.i, i64 %.pre-phi31
  tail call void @Gia_ManEquivReduce_rec(ptr noundef %0, ptr noundef nonnull %1, ptr noundef nonnull %28, i32 noundef %3, i32 noundef %4)
  %29 = getelementptr inbounds nuw i8, ptr %28, i64 8
  %30 = load i32, ptr %29, align 4, !tbaa !37
  %31 = ptrtoint ptr %28 to i64
  %32 = and i64 %31, -2
  %33 = inttoptr i64 %32 to ptr
  %34 = load i64, ptr %33, align 4
  %35 = lshr i64 %34, 63
  %36 = trunc nuw nsw i64 %35 to i32
  %37 = and i64 %7, -2
  %38 = inttoptr i64 %37 to ptr
  %39 = load i64, ptr %38, align 4
  %40 = lshr i64 %39, 63
  %41 = trunc nuw nsw i64 %40 to i32
  %42 = xor i64 %31, %7
  %43 = trunc i64 %42 to i32
  %44 = and i32 %43, 1
  %45 = xor i32 %44, %30
  %46 = xor i32 %45, %36
  %47 = xor i32 %46, %41
  %48 = getelementptr inbounds nuw i8, ptr %2, i64 8
  store i32 %47, ptr %48, align 4, !tbaa !37
  br label %common.ret32

Gia_ManEquivRepr.exit.thread:                     ; preds = %21, %18, %15, %Gia_ManEquivRepr.exit
  %49 = getelementptr inbounds nuw i8, ptr %2, i64 8
  %50 = load i32, ptr %49, align 4, !tbaa !37
  %.not27 = icmp eq i32 %50, -1
  br i1 %.not27, label %51, label %common.ret32

51:                                               ; preds = %Gia_ManEquivRepr.exit.thread
  %52 = load i64, ptr %2, align 4
  %53 = and i64 %52, 536870911
  %54 = sub nsw i64 0, %53
  %55 = getelementptr inbounds %struct.Gia_Obj_t_, ptr %2, i64 %54
  tail call void @Gia_ManEquivReduce_rec(ptr noundef %0, ptr noundef nonnull %1, ptr noundef nonnull %55, i32 noundef %3, i32 noundef %4)
  %56 = load i64, ptr %2, align 4
  %57 = lshr i64 %56, 32
  %58 = and i64 %57, 536870911
  %59 = sub nsw i64 0, %58
  %60 = getelementptr inbounds %struct.Gia_Obj_t_, ptr %2, i64 %59
  tail call void @Gia_ManEquivReduce_rec(ptr noundef %0, ptr noundef nonnull %1, ptr noundef nonnull %60, i32 noundef %3, i32 noundef %4)
  %61 = load i64, ptr %2, align 4
  %62 = and i64 %61, 536870911
  %63 = sub nsw i64 0, %62
  %64 = getelementptr inbounds %struct.Gia_Obj_t_, ptr %2, i64 %63, i32 1
  %65 = load i32, ptr %64, align 4, !tbaa !37
  %66 = trunc i64 %61 to i32
  %67 = lshr i32 %66, 29
  %68 = and i32 %67, 1
  %69 = xor i32 %68, %65
  %70 = lshr i64 %61, 32
  %71 = and i64 %70, 536870911
  %72 = sub nsw i64 0, %71
  %73 = getelementptr inbounds %struct.Gia_Obj_t_, ptr %2, i64 %72, i32 1
  %74 = load i32, ptr %73, align 4, !tbaa !37
  %75 = lshr i64 %61, 61
  %76 = trunc nuw nsw i64 %75 to i32
  %77 = and i32 %76, 1
  %78 = xor i32 %77, %74
  %79 = tail call i32 @Gia_ManHashAnd(ptr noundef %0, i32 noundef %69, i32 noundef %78) #31
  store i32 %79, ptr %49, align 4, !tbaa !37
  br label %common.ret32
}